target datalayout = "e-m:e-p270:32:32-p271:32:32-p272:64:64-i64:64-i128:128-f80:128-n8:16:32:64-S128"
target triple = "x86_64-pc-linux-gnu"

%struct.AVFilterContext = type { ptr, ptr, ptr, ptr, ptr, i32, ptr, ptr, i32, ptr, ptr, i32, i32, ptr, ptr, ptr, ptr, i32, ptr, i32, i32 }
%struct.FFTFILTContext = type { ptr, i32, i32, i32, i32, [4 x i32], [4 x i32], [32 x [4 x ptr]], [32 x [4 x ptr]], [32 x [4 x ptr]], [32 x [4 x ptr]], ptr, ptr, ptr, ptr, [4 x i32], [4 x i32], [4 x i64], [4 x i64], [4 x i64], [4 x i64], [4 x ptr], [4 x ptr], [4 x ptr], [4 x ptr], [4 x i32], [4 x ptr], [4 x ptr], [4 x ptr], ptr, ptr }
%struct.AVChannelLayout = type { i32, i32, %union.anon.1, ptr }
%union.anon.1 = type { i64 }
%struct.AVRational = type { i32, i32 }
%struct.AVFrame = type { [8 x ptr], [8 x i32], ptr, i32, i32, i32, i32, i32, %struct.AVRational, i64, i64, %struct.AVRational, i32, ptr, i32, i32, [8 x ptr], ptr, i32, ptr, i32, i32, i32, i32, i32, i32, i32, i64, ptr, i32, ptr, ptr, i64, i64, i64, i64, ptr, %struct.AVChannelLayout, i64 }

; Function Attrs: nounwind uwtable
define internal void @copy_rev(ptr noundef %0, i32 noundef %1, i32 noundef %2) #1 {
  %4 = alloca ptr, align 8
  %5 = alloca i32, align 4
  %6 = alloca i32, align 4
  %7 = alloca i32, align 4
  store ptr %0, ptr %4, align 8, !tbaa !57
  store i32 %1, ptr %5, align 4, !tbaa !24
  store i32 %2, ptr %6, align 4, !tbaa !24
  call void @llvm.lifetime.start.p0(i64 4, ptr %7) #10
  %8 = load i32, ptr %5, align 4, !tbaa !24
  store i32 %8, ptr %7, align 4, !tbaa !24
  br label %9

9:                                                ; preds = %32, %3
  %10 = load i32, ptr %7, align 4, !tbaa !24
  %11 = load i32, ptr %5, align 4, !tbaa !24
  %12 = load i32, ptr %6, align 4, !tbaa !24
  %13 = load i32, ptr %5, align 4, !tbaa !24
  %14 = sub nsw i32 %12, %13
  %15 = sdiv i32 %14, 2
  %16 = add nsw i32 %11, %15
  %17 = icmp slt i32 %10, %16
  br i1 %17, label %18, label %35

18:                                               ; preds = %9
  %19 = load ptr, ptr %4, align 8, !tbaa !57
  %20 = load i32, ptr %5, align 4, !tbaa !24
  %21 = mul nsw i32 2, %20
  %22 = load i32, ptr %7, align 4, !tbaa !24
  %23 = sub nsw i32 %21, %22
  %24 = sub nsw i32 %23, 1
  %25 = sext i32 %24 to i64
  %26 = getelementptr inbounds float, ptr %19, i64 %25
  %27 = load float, ptr %26, align 4, !tbaa !59
  %28 = load ptr, ptr %4, align 8, !tbaa !57
  %29 = load i32, ptr %7, align 4, !tbaa !24
  %30 = sext i32 %29 to i64
  %31 = getelementptr inbounds float, ptr %28, i64 %30
  store float %27, ptr %31, align 4, !tbaa !59
  br label %32

32:                                               ; preds = %18
  %33 = load i32, ptr %7, align 4, !tbaa !24
  %34 = add nsw i32 %33, 1
  store i32 %34, ptr %7, align 4, !tbaa !24
  br label %9, !llvm.loop !102

35:                                               ; preds = %9
  br label %36

36:                                               ; preds = %52, %35
  %37 = load i32, ptr %7, align 4, !tbaa !24
  %38 = load i32, ptr %6, align 4, !tbaa !24
  %39 = icmp slt i32 %37, %38
  br i1 %39, label %40, label %55

40:                                               ; preds = %36
  %41 = load ptr, ptr %4, align 8, !tbaa !57
  %42 = load i32, ptr %6, align 4, !tbaa !24
  %43 = load i32, ptr %7, align 4, !tbaa !24
  %44 = sub nsw i32 %42, %43
  %45 = sext i32 %44 to i64
  %46 = getelementptr inbounds float, ptr %41, i64 %45
  %47 = load float, ptr %46, align 4, !tbaa !59
  %48 = load ptr, ptr %4, align 8, !tbaa !57
  %49 = load i32, ptr %7, align 4, !tbaa !24
  %50 = sext i32 %49 to i64
  %51 = getelementptr inbounds float, ptr %48, i64 %50
  store float %47, ptr %51, align 4, !tbaa !59
  br label %52

52:                                               ; preds = %40
  %53 = load i32, ptr %7, align 4, !tbaa !24
  %54 = add nsw i32 %53, 1
  store i32 %54, ptr %7, align 4, !tbaa !24
  br label %36, !llvm.loop !103

55:                                               ; preds = %36
  call void @llvm.lifetime.end.p0(i64 4, ptr %7) #10
  ret void
}

; Function Attrs: nounwind uwtable
define internal i32 @rdft_horizontal16(ptr noundef %0, ptr noundef %1, i32 noundef %2, i32 noundef %3) #1 {
  %5 = alloca ptr, align 8
  %6 = alloca ptr, align 8
  %7 = alloca i32, align 4
  %8 = alloca i32, align 4
  %9 = alloca ptr, align 8
  %10 = alloca ptr, align 8
  %11 = alloca i32, align 4
  %12 = alloca i32, align 4
  %13 = alloca i32, align 4
  %14 = alloca i32, align 4
  %15 = alloca i32, align 4
  %16 = alloca i32, align 4
  %17 = alloca i32, align 4
  %18 = alloca ptr, align 8
  %19 = alloca ptr, align 8
  %20 = alloca i32, align 4
  %21 = alloca i32, align 4
  store ptr %0, ptr %5, align 8, !tbaa !4
  store ptr %1, ptr %6, align 8, !tbaa !26
  store i32 %2, ptr %7, align 4, !tbaa !24
  store i32 %3, ptr %8, align 4, !tbaa !24
  call void @llvm.lifetime.start.p0(i64 8, ptr %9) #10
  %22 = load ptr, ptr %5, align 8, !tbaa !4
  %23 = getelementptr inbounds nuw %struct.AVFilterContext, ptr %22, i32 0, i32 9
  %24 = load ptr, ptr %23, align 8, !tbaa !9
  store ptr %24, ptr %9, align 8, !tbaa !22
  call void @llvm.lifetime.start.p0(i64 8, ptr %10) #10
  %25 = load ptr, ptr %6, align 8, !tbaa !26
  store ptr %25, ptr %10, align 8, !tbaa !37
  call void @llvm.lifetime.start.p0(i64 4, ptr %11) #10
  store i32 0, ptr %11, align 4, !tbaa !24
  br label %26

26:                                               ; preds = %199, %4
  %27 = load i32, ptr %11, align 4, !tbaa !24
  %28 = load ptr, ptr %9, align 8, !tbaa !22
  %29 = getelementptr inbounds nuw %struct.FFTFILTContext, ptr %28, i32 0, i32 3
  %30 = load i32, ptr %29, align 8, !tbaa !51
  %31 = icmp slt i32 %27, %30
  br i1 %31, label %33, label %32

32:                                               ; preds = %26
  store i32 2, ptr %12, align 4
  call void @llvm.lifetime.end.p0(i64 4, ptr %11) #10
  br label %202

33:                                               ; preds = %26
  call void @llvm.lifetime.start.p0(i64 4, ptr %13) #10
  %34 = load ptr, ptr %9, align 8, !tbaa !22
  %35 = getelementptr inbounds nuw %struct.FFTFILTContext, ptr %34, i32 0, i32 5
  %36 = load i32, ptr %11, align 4, !tbaa !24
  %37 = sext i32 %36 to i64
  %38 = getelementptr inbounds [4 x i32], ptr %35, i64 0, i64 %37
  %39 = load i32, ptr %38, align 4, !tbaa !24
  store i32 %39, ptr %13, align 4, !tbaa !24
  call void @llvm.lifetime.start.p0(i64 4, ptr %14) #10
  %40 = load ptr, ptr %9, align 8, !tbaa !22
  %41 = getelementptr inbounds nuw %struct.FFTFILTContext, ptr %40, i32 0, i32 6
  %42 = load i32, ptr %11, align 4, !tbaa !24
  %43 = sext i32 %42 to i64
  %44 = getelementptr inbounds [4 x i32], ptr %41, i64 0, i64 %43
  %45 = load i32, ptr %44, align 4, !tbaa !24
  store i32 %45, ptr %14, align 4, !tbaa !24
  call void @llvm.lifetime.start.p0(i64 4, ptr %15) #10
  %46 = load i32, ptr %14, align 4, !tbaa !24
  %47 = load i32, ptr %7, align 4, !tbaa !24
  %48 = mul nsw i32 %46, %47
  %49 = load i32, ptr %8, align 4, !tbaa !24
  %50 = sdiv i32 %48, %49
  store i32 %50, ptr %15, align 4, !tbaa !24
  call void @llvm.lifetime.start.p0(i64 4, ptr %16) #10
  %51 = load i32, ptr %14, align 4, !tbaa !24
  %52 = load i32, ptr %7, align 4, !tbaa !24
  %53 = add nsw i32 %52, 1
  %54 = mul nsw i32 %51, %53
  %55 = load i32, ptr %8, align 4, !tbaa !24
  %56 = sdiv i32 %54, %55
  store i32 %56, ptr %16, align 4, !tbaa !24
  call void @llvm.lifetime.start.p0(i64 4, ptr %17) #10
  %57 = load i32, ptr %15, align 4, !tbaa !24
  store i32 %57, ptr %17, align 4, !tbaa !24
  br label %58

58:                                               ; preds = %140, %33
  %59 = load i32, ptr %17, align 4, !tbaa !24
  %60 = load i32, ptr %16, align 4, !tbaa !24
  %61 = icmp slt i32 %59, %60
  br i1 %61, label %63, label %62

62:                                               ; preds = %58
  store i32 5, ptr %12, align 4
  call void @llvm.lifetime.end.p0(i64 4, ptr %17) #10
  br label %143

63:                                               ; preds = %58
  call void @llvm.lifetime.start.p0(i64 8, ptr %18) #10
  %64 = load ptr, ptr %10, align 8, !tbaa !37
  %65 = getelementptr inbounds nuw %struct.AVFrame, ptr %64, i32 0, i32 0
  %66 = load i32, ptr %11, align 4, !tbaa !24
  %67 = sext i32 %66 to i64
  %68 = getelementptr inbounds [8 x ptr], ptr %65, i64 0, i64 %67
  %69 = load ptr, ptr %68, align 8, !tbaa !25
  %70 = load i32, ptr %17, align 4, !tbaa !24
  %71 = load ptr, ptr %10, align 8, !tbaa !37
  %72 = getelementptr inbounds nuw %struct.AVFrame, ptr %71, i32 0, i32 1
  %73 = load i32, ptr %11, align 4, !tbaa !24
  %74 = sext i32 %73 to i64
  %75 = getelementptr inbounds [8 x i32], ptr %72, i64 0, i64 %74
  %76 = load i32, ptr %75, align 4, !tbaa !24
  %77 = mul nsw i32 %70, %76
  %78 = sext i32 %77 to i64
  %79 = getelementptr inbounds i8, ptr %69, i64 %78
  store ptr %79, ptr %18, align 8, !tbaa !116
  call void @llvm.lifetime.start.p0(i64 8, ptr %19) #10
  %80 = load ptr, ptr %9, align 8, !tbaa !22
  %81 = getelementptr inbounds nuw %struct.FFTFILTContext, ptr %80, i32 0, i32 21
  %82 = load i32, ptr %11, align 4, !tbaa !24
  %83 = sext i32 %82 to i64
  %84 = getelementptr inbounds [4 x ptr], ptr %81, i64 0, i64 %83
  %85 = load ptr, ptr %84, align 8, !tbaa !57
  %86 = load i32, ptr %17, align 4, !tbaa !24
  %87 = sext i32 %86 to i64
  %88 = load ptr, ptr %9, align 8, !tbaa !22
  %89 = getelementptr inbounds nuw %struct.FFTFILTContext, ptr %88, i32 0, i32 17
  %90 = load i32, ptr %11, align 4, !tbaa !24
  %91 = sext i32 %90 to i64
  %92 = getelementptr inbounds [4 x i64], ptr %89, i64 0, i64 %91
  %93 = load i64, ptr %92, align 8, !tbaa !54
  %94 = mul i64 %87, %93
  %95 = getelementptr inbounds nuw float, ptr %85, i64 %94
  store ptr %95, ptr %19, align 8, !tbaa !57
  call void @llvm.lifetime.start.p0(i64 4, ptr %20) #10
  store i32 0, ptr %20, align 4, !tbaa !24
  br label %96

96:                                               ; preds = %112, %63
  %97 = load i32, ptr %20, align 4, !tbaa !24
  %98 = load i32, ptr %13, align 4, !tbaa !24
  %99 = icmp slt i32 %97, %98
  br i1 %99, label %101, label %100

100:                                              ; preds = %96
  store i32 8, ptr %12, align 4
  call void @llvm.lifetime.end.p0(i64 4, ptr %20) #10
  br label %115

101:                                              ; preds = %96
  %102 = load ptr, ptr %18, align 8, !tbaa !116
  %103 = load i32, ptr %20, align 4, !tbaa !24
  %104 = sext i32 %103 to i64
  %105 = getelementptr inbounds i16, ptr %102, i64 %104
  %106 = load i16, ptr %105, align 2, !tbaa !118
  %107 = uitofp i16 %106 to float
  %108 = load ptr, ptr %19, align 8, !tbaa !57
  %109 = load i32, ptr %20, align 4, !tbaa !24
  %110 = sext i32 %109 to i64
  %111 = getelementptr inbounds float, ptr %108, i64 %110
  store float %107, ptr %111, align 4, !tbaa !59
  br label %112

112:                                              ; preds = %101
  %113 = load i32, ptr %20, align 4, !tbaa !24
  %114 = add nsw i32 %113, 1
  store i32 %114, ptr %20, align 4, !tbaa !24
  br label %96, !llvm.loop !120

115:                                              ; preds = %100
  %116 = load ptr, ptr %9, align 8, !tbaa !22
  %117 = getelementptr inbounds nuw %struct.FFTFILTContext, ptr %116, i32 0, i32 21
  %118 = load i32, ptr %11, align 4, !tbaa !24
  %119 = sext i32 %118 to i64
  %120 = getelementptr inbounds [4 x ptr], ptr %117, i64 0, i64 %119
  %121 = load ptr, ptr %120, align 8, !tbaa !57
  %122 = load i32, ptr %17, align 4, !tbaa !24
  %123 = sext i32 %122 to i64
  %124 = load ptr, ptr %9, align 8, !tbaa !22
  %125 = getelementptr inbounds nuw %struct.FFTFILTContext, ptr %124, i32 0, i32 17
  %126 = load i32, ptr %11, align 4, !tbaa !24
  %127 = sext i32 %126 to i64
  %128 = getelementptr inbounds [4 x i64], ptr %125, i64 0, i64 %127
  %129 = load i64, ptr %128, align 8, !tbaa !54
  %130 = mul i64 %123, %129
  %131 = getelementptr inbounds nuw float, ptr %121, i64 %130
  %132 = load i32, ptr %13, align 4, !tbaa !24
  %133 = load ptr, ptr %9, align 8, !tbaa !22
  %134 = getelementptr inbounds nuw %struct.FFTFILTContext, ptr %133, i32 0, i32 19
  %135 = load i32, ptr %11, align 4, !tbaa !24
  %136 = sext i32 %135 to i64
  %137 = getelementptr inbounds [4 x i64], ptr %134, i64 0, i64 %136
  %138 = load i64, ptr %137, align 8, !tbaa !54
  %139 = trunc i64 %138 to i32
  call void @copy_rev(ptr noundef %131, i32 noundef %132, i32 noundef %139)
  call void @llvm.lifetime.end.p0(i64 8, ptr %19) #10
  call void @llvm.lifetime.end.p0(i64 8, ptr %18) #10
  br label %140

140:                                              ; preds = %115
  %141 = load i32, ptr %17, align 4, !tbaa !24
  %142 = add nsw i32 %141, 1
  store i32 %142, ptr %17, align 4, !tbaa !24
  br label %58, !llvm.loop !121

143:                                              ; preds = %62
  call void @llvm.lifetime.start.p0(i64 4, ptr %21) #10
  %144 = load i32, ptr %15, align 4, !tbaa !24
  store i32 %144, ptr %21, align 4, !tbaa !24
  br label %145

145:                                              ; preds = %195, %143
  %146 = load i32, ptr %21, align 4, !tbaa !24
  %147 = load i32, ptr %16, align 4, !tbaa !24
  %148 = icmp slt i32 %146, %147
  br i1 %148, label %150, label %149

149:                                              ; preds = %145
  store i32 11, ptr %12, align 4
  call void @llvm.lifetime.end.p0(i64 4, ptr %21) #10
  br label %198

150:                                              ; preds = %145
  %151 = load ptr, ptr %9, align 8, !tbaa !22
  %152 = getelementptr inbounds nuw %struct.FFTFILTContext, ptr %151, i32 0, i32 11
  %153 = load ptr, ptr %152, align 8, !tbaa !108
  %154 = load ptr, ptr %9, align 8, !tbaa !22
  %155 = getelementptr inbounds nuw %struct.FFTFILTContext, ptr %154, i32 0, i32 7
  %156 = load i32, ptr %7, align 4, !tbaa !24
  %157 = sext i32 %156 to i64
  %158 = getelementptr inbounds [32 x [4 x ptr]], ptr %155, i64 0, i64 %157
  %159 = load i32, ptr %11, align 4, !tbaa !24
  %160 = sext i32 %159 to i64
  %161 = getelementptr inbounds [4 x ptr], ptr %158, i64 0, i64 %160
  %162 = load ptr, ptr %161, align 8, !tbaa !81
  %163 = load ptr, ptr %9, align 8, !tbaa !22
  %164 = getelementptr inbounds nuw %struct.FFTFILTContext, ptr %163, i32 0, i32 23
  %165 = load i32, ptr %11, align 4, !tbaa !24
  %166 = sext i32 %165 to i64
  %167 = getelementptr inbounds [4 x ptr], ptr %164, i64 0, i64 %166
  %168 = load ptr, ptr %167, align 8, !tbaa !57
  %169 = load i32, ptr %21, align 4, !tbaa !24
  %170 = sext i32 %169 to i64
  %171 = load ptr, ptr %9, align 8, !tbaa !22
  %172 = getelementptr inbounds nuw %struct.FFTFILTContext, ptr %171, i32 0, i32 17
  %173 = load i32, ptr %11, align 4, !tbaa !24
  %174 = sext i32 %173 to i64
  %175 = getelementptr inbounds [4 x i64], ptr %172, i64 0, i64 %174
  %176 = load i64, ptr %175, align 8, !tbaa !54
  %177 = mul i64 %170, %176
  %178 = getelementptr inbounds nuw float, ptr %168, i64 %177
  %179 = load ptr, ptr %9, align 8, !tbaa !22
  %180 = getelementptr inbounds nuw %struct.FFTFILTContext, ptr %179, i32 0, i32 21
  %181 = load i32, ptr %11, align 4, !tbaa !24
  %182 = sext i32 %181 to i64
  %183 = getelementptr inbounds [4 x ptr], ptr %180, i64 0, i64 %182
  %184 = load ptr, ptr %183, align 8, !tbaa !57
  %185 = load i32, ptr %21, align 4, !tbaa !24
  %186 = sext i32 %185 to i64
  %187 = load ptr, ptr %9, align 8, !tbaa !22
  %188 = getelementptr inbounds nuw %struct.FFTFILTContext, ptr %187, i32 0, i32 17
  %189 = load i32, ptr %11, align 4, !tbaa !24
  %190 = sext i32 %189 to i64
  %191 = getelementptr inbounds [4 x i64], ptr %188, i64 0, i64 %190
  %192 = load i64, ptr %191, align 8, !tbaa !54
  %193 = mul i64 %186, %192
  %194 = getelementptr inbounds nuw float, ptr %184, i64 %193
  call void %153(ptr noundef %162, ptr noundef %178, ptr noundef %194, i64 noundef 4)
  br label %195

195:                                              ; preds = %150
  %196 = load i32, ptr %21, align 4, !tbaa !24
  %197 = add nsw i32 %196, 1
  store i32 %197, ptr %21, align 4, !tbaa !24
  br label %145, !llvm.loop !122

198:                                              ; preds = %149
  call void @llvm.lifetime.end.p0(i64 4, ptr %16) #10
  call void @llvm.lifetime.end.p0(i64 4, ptr %15) #10
  call void @llvm.lifetime.end.p0(i64 4, ptr %14) #10
  call void @llvm.lifetime.end.p0(i64 4, ptr %13) #10
  br label %199

199:                                              ; preds = %198
  %200 = load i32, ptr %11, align 4, !tbaa !24
  %201 = add nsw i32 %200, 1
  store i32 %201, ptr %11, align 4, !tbaa !24
  br label %26, !llvm.loop !123

202:                                              ; preds = %32
  store i32 1, ptr %12, align 4
  call void @llvm.lifetime.end.p0(i64 8, ptr %10) #10
  call void @llvm.lifetime.end.p0(i64 8, ptr %9) #10
  ret i32 0
}